target datalayout = "e-m:e-p270:32:32-p271:32:32-p272:64:64-i64:64-i128:128-f80:128-n8:16:32:64-S128"
target triple = "x86_64-unknown-linux-gnu"

%"class.llvh::detail::IEEEFloat" = type <{ ptr, %"union.llvh::detail::IEEEFloat::Significand", i16, i8, [5 x i8] }>
%"union.llvh::detail::IEEEFloat::Significand" = type { i64 }

@_ZN4llvhL9infinityUE = internal constant [9 x i8] c"INFINITY\00", align 1
@_ZN4llvhL9infinityLE = internal constant [9 x i8] c"infinity\00", align 1
@_ZN4llvhL4NaNUE = internal constant [4 x i8] c"NAN\00", align 1
@_ZN4llvhL4NaNLE = internal constant [4 x i8] c"nan\00", align 1

; Function Attrs: mustprogress nounwind uwtable
define hidden noundef i32 @_ZNK4llvh6detail9IEEEFloat18convertToHexStringEPcjbNS_11APFloatBase12roundingModeE(ptr noundef nonnull align 8 dereferenceable(24) %this, ptr noundef %dst, i32 noundef %hexDigits, i1 noundef zeroext %upperCase, i32 noundef %rounding_mode) #1 align 2 {
entry:
  %this.addr = alloca ptr, align 8
  %dst.addr = alloca ptr, align 8
  %hexDigits.addr = alloca i32, align 4
  %upperCase.addr = alloca i8, align 1
  %rounding_mode.addr = alloca i32, align 4
  %p = alloca ptr, align 8
  store ptr %this, ptr %this.addr, align 8
  store ptr %dst, ptr %dst.addr, align 8
  store i32 %hexDigits, ptr %hexDigits.addr, align 4
  %frombool = zext i1 %upperCase to i8
  store i8 %frombool, ptr %upperCase.addr, align 1
  store i32 %rounding_mode, ptr %rounding_mode.addr, align 4
  %this1 = load ptr, ptr %this.addr, align 8
  %0 = load ptr, ptr %dst.addr, align 8
  store ptr %0, ptr %p, align 8
  %sign = getelementptr inbounds %"class.llvh::detail::IEEEFloat", ptr %this1, i32 0, i32 3
  %bf.load = load i8, ptr %sign, align 2
  %bf.lshr = lshr i8 %bf.load, 3
  %bf.clear = and i8 %bf.lshr, 1
  %bf.cast = zext i8 %bf.clear to i32
  %tobool = icmp ne i32 %bf.cast, 0
  br i1 %tobool, label %if.then, label %if.end

if.then:                                          ; preds = %entry
  %1 = load ptr, ptr %dst.addr, align 8
  %incdec.ptr = getelementptr inbounds i8, ptr %1, i32 1
  store ptr %incdec.ptr, ptr %dst.addr, align 8
  store i8 45, ptr %1, align 1
  br label %if.end

if.end:                                           ; preds = %if.then, %entry
  %category = getelementptr inbounds %"class.llvh::detail::IEEEFloat", ptr %this1, i32 0, i32 3
  %bf.load2 = load i8, ptr %category, align 2
  %bf.clear3 = and i8 %bf.load2, 7
  %bf.cast4 = zext i8 %bf.clear3 to i32
  switch i32 %bf.cast4, label %sw.epilog [
    i32 0, label %sw.bb
    i32 1, label %sw.bb6
    i32 3, label %sw.bb14
    i32 2, label %sw.bb28
  ]

sw.bb:                                            ; preds = %if.end
  %2 = load ptr, ptr %dst.addr, align 8
  %3 = load i8, ptr %upperCase.addr, align 1
  %tobool5 = trunc i8 %3 to i1
  br i1 %tobool5, label %cond.true, label %cond.false

cond.true:                                        ; preds = %sw.bb
  br label %cond.end

cond.false:                                       ; preds = %sw.bb
  br label %cond.end

cond.end:                                         ; preds = %cond.false, %cond.true
  %cond-lvalue = phi ptr [ @_ZN4llvhL9infinityUE, %cond.true ], [ @_ZN4llvhL9infinityLE, %cond.false ]
  %arraydecay = getelementptr inbounds [9 x i8], ptr %cond-lvalue, i64 0, i64 0
  call void @llvm.memcpy.p0.p0.i64(ptr align 1 %2, ptr align 1 %arraydecay, i64 8, i1 false)
  %4 = load ptr, ptr %dst.addr, align 8
  %add.ptr = getelementptr inbounds i8, ptr %4, i64 8
  store ptr %add.ptr, ptr %dst.addr, align 8
  br label %sw.epilog

sw.bb6:                                           ; preds = %if.end
  %5 = load ptr, ptr %dst.addr, align 8
  %6 = load i8, ptr %upperCase.addr, align 1
  %tobool7 = trunc i8 %6 to i1
  br i1 %tobool7, label %cond.true8, label %cond.false9

cond.true8:                                       ; preds = %sw.bb6
  br label %cond.end10

cond.false9:                                      ; preds = %sw.bb6
  br label %cond.end10

cond.end10:                                       ; preds = %cond.false9, %cond.true8
  %cond-lvalue11 = phi ptr [ @_ZN4llvhL4NaNUE, %cond.true8 ], [ @_ZN4llvhL4NaNLE, %cond.false9 ]
  %arraydecay12 = getelementptr inbounds [4 x i8], ptr %cond-lvalue11, i64 0, i64 0
  call void @llvm.memcpy.p0.p0.i64(ptr align 1 %5, ptr align 1 %arraydecay12, i64 3, i1 false)
  %7 = load ptr, ptr %dst.addr, align 8
  %add.ptr13 = getelementptr inbounds i8, ptr %7, i64 3
  store ptr %add.ptr13, ptr %dst.addr, align 8
  br label %sw.epilog

sw.bb14:                                          ; preds = %if.end
  %8 = load ptr, ptr %dst.addr, align 8
  %incdec.ptr15 = getelementptr inbounds i8, ptr %8, i32 1
  store ptr %incdec.ptr15, ptr %dst.addr, align 8
  store i8 48, ptr %8, align 1
  %9 = load i8, ptr %upperCase.addr, align 1
  %tobool16 = trunc i8 %9 to i1
  %cond = select i1 %tobool16, i8 88, i8 120
  %10 = load ptr, ptr %dst.addr, align 8
  %incdec.ptr17 = getelementptr inbounds i8, ptr %10, i32 1
  store ptr %incdec.ptr17, ptr %dst.addr, align 8
  store i8 %cond, ptr %10, align 1
  %11 = load ptr, ptr %dst.addr, align 8
  %incdec.ptr18 = getelementptr inbounds i8, ptr %11, i32 1
  store ptr %incdec.ptr18, ptr %dst.addr, align 8
  store i8 48, ptr %11, align 1
  %12 = load i32, ptr %hexDigits.addr, align 4
  %cmp = icmp ugt i32 %12, 1
  br i1 %cmp, label %if.then19, label %if.end23

if.then19:                                        ; preds = %sw.bb14
  %13 = load ptr, ptr %dst.addr, align 8
  %incdec.ptr20 = getelementptr inbounds i8, ptr %13, i32 1
  store ptr %incdec.ptr20, ptr %dst.addr, align 8
  store i8 46, ptr %13, align 1
  %14 = load ptr, ptr %dst.addr, align 8
  %15 = load i32, ptr %hexDigits.addr, align 4
  %sub = sub i32 %15, 1
  %conv = zext i32 %sub to i64
  call void @llvm.memset.p0.i64(ptr align 1 %14, i8 48, i64 %conv, i1 false)
  %16 = load i32, ptr %hexDigits.addr, align 4
  %sub21 = sub i32 %16, 1
  %17 = load ptr, ptr %dst.addr, align 8
  %idx.ext = zext i32 %sub21 to i64
  %add.ptr22 = getelementptr inbounds i8, ptr %17, i64 %idx.ext
  store ptr %add.ptr22, ptr %dst.addr, align 8
  br label %if.end23

if.end23:                                         ; preds = %if.then19, %sw.bb14
  %18 = load i8, ptr %upperCase.addr, align 1
  %tobool24 = trunc i8 %18 to i1
  %cond25 = select i1 %tobool24, i8 80, i8 112
  %19 = load ptr, ptr %dst.addr, align 8
  %incdec.ptr26 = getelementptr inbounds i8, ptr %19, i32 1
  store ptr %incdec.ptr26, ptr %dst.addr, align 8
  store i8 %cond25, ptr %19, align 1
  %20 = load ptr, ptr %dst.addr, align 8
  %incdec.ptr27 = getelementptr inbounds i8, ptr %20, i32 1
  store ptr %incdec.ptr27, ptr %dst.addr, align 8
  store i8 48, ptr %20, align 1
  br label %sw.epilog

sw.bb28:                                          ; preds = %if.end
  %21 = load ptr, ptr %dst.addr, align 8
  %22 = load i32, ptr %hexDigits.addr, align 4
  %23 = load i8, ptr %upperCase.addr, align 1
  %tobool29 = trunc i8 %23 to i1
  %24 = load i32, ptr %rounding_mode.addr, align 4
  %call = call noundef ptr @_ZNK4llvh6detail9IEEEFloat24convertNormalToHexStringEPcjbNS_11APFloatBase12roundingModeE(ptr noundef nonnull align 8 dereferenceable(24) %this1, ptr noundef %21, i32 noundef %22, i1 noundef zeroext %tobool29, i32 noundef %24)
  store ptr %call, ptr %dst.addr, align 8
  br label %sw.epilog

sw.epilog:                                        ; preds = %sw.bb28, %if.end23, %cond.end10, %cond.end, %if.end
  %25 = load ptr, ptr %dst.addr, align 8
  store i8 0, ptr %25, align 1
  %26 = load ptr, ptr %dst.addr, align 8
  %27 = load ptr, ptr %p, align 8
  %sub.ptr.lhs.cast = ptrtoint ptr %26 to i64
  %sub.ptr.rhs.cast = ptrtoint ptr %27 to i64
  %sub.ptr.sub = sub i64 %sub.ptr.lhs.cast, %sub.ptr.rhs.cast
  %conv30 = trunc i64 %sub.ptr.sub to i32
  ret i32 %conv30
}