; Function Attrs: mustprogress nounwind uwtable
define hidden noundef i32 @_ZNK4llvh6detail9IEEEFloat18convertToHexStringEPcjbNS_11APFloatBase12roundingModeE(ptr noundef nonnull align 8 dereferenceable(24) %this, ptr noundef %dst, i32 noundef %hexDigits, i1 noundef zeroext %upperCase, i32 noundef %rounding_mode) local_unnamed_addr #2 align 2 {
entry:
  %sign = getelementptr inbounds nuw i8, ptr %this, i64 18
  %bf.load = load i8, ptr %sign, align 2
  %0 = and i8 %bf.load, 8
  %tobool.not = icmp eq i8 %0, 0
  br i1 %tobool.not, label %if.end, label %if.then

if.then:                                          ; preds = %entry
  %incdec.ptr = getelementptr inbounds nuw i8, ptr %dst, i64 1
  store i8 45, ptr %dst, align 1
  %bf.load2.pre = load i8, ptr %sign, align 2
  br label %if.end

if.end:                                           ; preds = %if.then, %entry
  %bf.load2 = phi i8 [ %bf.load2.pre, %if.then ], [ %bf.load, %entry ]
  %dst.addr.0 = phi ptr [ %incdec.ptr, %if.then ], [ %dst, %entry ]
  %bf.clear3 = and i8 %bf.load2, 7
  switch i8 %bf.clear3, label %sw.epilog [
    i8 0, label %sw.bb
    i8 1, label %sw.bb6
    i8 3, label %sw.bb14
    i8 2, label %sw.bb28
  ]

sw.bb:                                            ; preds = %if.end
  %1 = select i1 %upperCase, i64 6436850368004902473, i64 8751735898823356009
  store i64 %1, ptr %dst.addr.0, align 1
  %add.ptr = getelementptr inbounds nuw i8, ptr %dst.addr.0, i64 8
  br label %sw.epilog

sw.bb6:                                           ; preds = %if.end
  %_ZN4llvhL4NaNUE._ZN4llvhL4NaNLE = select i1 %upperCase, ptr @_ZN4llvhL4NaNUE, ptr @_ZN4llvhL4NaNLE
  tail call void @llvm.memcpy.p0.p0.i64(ptr noundef nonnull align 1 dereferenceable(3) %dst.addr.0, ptr noundef nonnull align 1 dereferenceable(3) %_ZN4llvhL4NaNUE._ZN4llvhL4NaNLE, i64 3, i1 false)
  %add.ptr13 = getelementptr inbounds nuw i8, ptr %dst.addr.0, i64 3
  br label %sw.epilog

sw.bb14:                                          ; preds = %if.end
  %incdec.ptr15 = getelementptr inbounds nuw i8, ptr %dst.addr.0, i64 1
  store i8 48, ptr %dst.addr.0, align 1
  %cond = select i1 %upperCase, i8 88, i8 120
  %incdec.ptr17 = getelementptr inbounds nuw i8, ptr %dst.addr.0, i64 2
  store i8 %cond, ptr %incdec.ptr15, align 1
  %incdec.ptr18 = getelementptr inbounds nuw i8, ptr %dst.addr.0, i64 3
  store i8 48, ptr %incdec.ptr17, align 1
  %cmp = icmp ugt i32 %hexDigits, 1
  br i1 %cmp, label %if.then19, label %if.end23

if.then19:                                        ; preds = %sw.bb14
  %incdec.ptr20 = getelementptr inbounds nuw i8, ptr %dst.addr.0, i64 4
  store i8 46, ptr %incdec.ptr18, align 1
  %sub = add i32 %hexDigits, -1
  %conv = zext i32 %sub to i64
  tail call void @llvm.memset.p0.i64(ptr nonnull align 1 %incdec.ptr20, i8 48, i64 %conv, i1 false)
  %add.ptr22 = getelementptr inbounds nuw i8, ptr %incdec.ptr20, i64 %conv
  br label %if.end23

if.end23:                                         ; preds = %if.then19, %sw.bb14
  %dst.addr.2 = phi ptr [ %add.ptr22, %if.then19 ], [ %incdec.ptr18, %sw.bb14 ]
  %cond25 = select i1 %upperCase, i8 80, i8 112
  %incdec.ptr26 = getelementptr inbounds nuw i8, ptr %dst.addr.2, i64 1
  store i8 %cond25, ptr %dst.addr.2, align 1
  %incdec.ptr27 = getelementptr inbounds nuw i8, ptr %dst.addr.2, i64 2
  store i8 48, ptr %incdec.ptr26, align 1
  br label %sw.epilog

sw.bb28:                                          ; preds = %if.end
  %call = tail call noundef ptr @_ZNK4llvh6detail9IEEEFloat24convertNormalToHexStringEPcjbNS_11APFloatBase12roundingModeE(ptr noundef nonnull align 8 dereferenceable(24) %this, ptr noundef %dst.addr.0, i32 noundef %hexDigits, i1 noundef zeroext %upperCase, i32 noundef %rounding_mode)
  br label %sw.epilog

sw.epilog:                                        ; preds = %sw.bb28, %if.end23, %sw.bb6, %sw.bb, %if.end
  %dst.addr.1 = phi ptr [ %dst.addr.0, %if.end ], [ %call, %sw.bb28 ], [ %incdec.ptr27, %if.end23 ], [ %add.ptr13, %sw.bb6 ], [ %add.ptr, %sw.bb ]
  store i8 0, ptr %dst.addr.1, align 1
  %sub.ptr.lhs.cast = ptrtoint ptr %dst.addr.1 to i64
  %sub.ptr.rhs.cast = ptrtoint ptr %dst to i64
  %sub.ptr.sub = sub i64 %sub.ptr.lhs.cast, %sub.ptr.rhs.cast
  %conv30 = trunc i64 %sub.ptr.sub to i32
  ret i32 %conv30
}